; Function Attrs: mustprogress uwtable
define noundef range(i32 0, 2) i32 @_ZN12duckdb_miniz17mz_zip_writer_endEPNS_14mz_zip_archiveE(ptr noundef captures(address_is_null) %0) local_unnamed_addr #8 {
  %.not.i = icmp eq ptr %0, null
  br i1 %.not.i, label %_ZN12duckdb_minizL26mz_zip_writer_end_internalEPNS_14mz_zip_archiveEi.exit, label %2

2:                                                ; preds = %1
  %3 = getelementptr inbounds nuw i8, ptr %0, i64 104
  %4 = load ptr, ptr %3, align 8, !tbaa !204
  %.not30.i = icmp eq ptr %4, null
  br i1 %.not30.i, label %15, label %5

5:                                                ; preds = %2
  %6 = getelementptr inbounds nuw i8, ptr %0, i64 40
  %7 = load ptr, ptr %6, align 8, !tbaa !210
  %.not31.i = icmp eq ptr %7, null
  br i1 %.not31.i, label %15, label %8

8:                                                ; preds = %5
  %9 = getelementptr inbounds nuw i8, ptr %0, i64 48
  %10 = load ptr, ptr %9, align 8, !tbaa !211
  %.not32.i = icmp eq ptr %10, null
  br i1 %.not32.i, label %15, label %11

11:                                               ; preds = %8
  %12 = getelementptr inbounds nuw i8, ptr %0, i64 20
  %13 = load i32, ptr %12, align 4, !tbaa !212
  %14 = and i32 %13, -2
  %switch.i = icmp eq i32 %14, 2
  br i1 %switch.i, label %17, label %15

15:                                               ; preds = %11, %8, %5, %2
  %16 = getelementptr inbounds nuw i8, ptr %0, i64 28
  store i32 24, ptr %16, align 4, !tbaa !213
  br label %_ZN12duckdb_minizL26mz_zip_writer_end_internalEPNS_14mz_zip_archiveEi.exit

17:                                               ; preds = %11
  store ptr null, ptr %3, align 8, !tbaa !204
  %18 = getelementptr inbounds nuw i8, ptr %0, i64 64
  %19 = load ptr, ptr %18, align 8, !tbaa !214
  %20 = load ptr, ptr %4, align 8, !tbaa !215
  tail call void %10(ptr noundef %19, ptr noundef %20)
  tail call void @llvm.memset.p0.i64(ptr noundef nonnull align 8 dereferenceable(32) %4, i8 0, i64 32, i1 false)
  %21 = getelementptr inbounds nuw i8, ptr %4, i64 32
  %22 = load ptr, ptr %9, align 8, !tbaa !211
  %23 = load ptr, ptr %18, align 8, !tbaa !214
  %24 = load ptr, ptr %21, align 8, !tbaa !215
  tail call void %22(ptr noundef %23, ptr noundef %24)
  tail call void @llvm.memset.p0.i64(ptr noundef nonnull align 8 dereferenceable(32) %21, i8 0, i64 32, i1 false)
  %25 = getelementptr inbounds nuw i8, ptr %4, i64 64
  %26 = load ptr, ptr %9, align 8, !tbaa !211
  %27 = load ptr, ptr %18, align 8, !tbaa !214
  %28 = load ptr, ptr %25, align 8, !tbaa !215
  tail call void %26(ptr noundef %27, ptr noundef %28)
  tail call void @llvm.memset.p0.i64(ptr noundef nonnull align 8 dereferenceable(32) %25, i8 0, i64 32, i1 false)
  %29 = getelementptr inbounds nuw i8, ptr %0, i64 80
  %30 = load ptr, ptr %29, align 8, !tbaa !294
  %31 = icmp eq ptr %30, @_ZN12duckdb_minizL22mz_zip_heap_write_funcEPvmPKvm
  br i1 %31, label %32, label %38

32:                                               ; preds = %17
  %33 = getelementptr inbounds nuw i8, ptr %4, i64 128
  %34 = load ptr, ptr %33, align 8, !tbaa !241
  %.not35.i = icmp eq ptr %34, null
  br i1 %.not35.i, label %38, label %35

35:                                               ; preds = %32
  %36 = load ptr, ptr %9, align 8, !tbaa !211
  %37 = load ptr, ptr %18, align 8, !tbaa !214
  tail call void %36(ptr noundef %37, ptr noundef nonnull %34)
  store ptr null, ptr %33, align 8, !tbaa !241
  br label %38

38:                                               ; preds = %35, %32, %17
  %39 = load ptr, ptr %9, align 8, !tbaa !211
  %40 = load ptr, ptr %18, align 8, !tbaa !214
  tail call void %39(ptr noundef %40, ptr noundef nonnull %4)
  store i32 0, ptr %12, align 4, !tbaa !212
  br label %_ZN12duckdb_minizL26mz_zip_writer_end_internalEPNS_14mz_zip_archiveEi.exit

_ZN12duckdb_minizL26mz_zip_writer_end_internalEPNS_14mz_zip_archiveEi.exit: ; preds = %1, %15, %38
  %.0.i = phi i32 [ 1, %38 ], [ 0, %15 ], [ 0, %1 ]
  ret i32 %.0.i
}